(dp1
S'output'
p2
S"<type 'exceptions.KeyError'> 'COUNT(orday.totalcost)'"
p3
sS'layer'
p4
S'/home/itmbastawi/web2py/applications/asha3a/views/reports/orders.html'
p5
sS'code'
p6
S'response.write(\'<!DOCTYPE html>\\n<html lang="ar">\\n  <head>\\n    <meta charset="utf-8">\\n    <meta http-equiv="X-UA-Compatible" content="IE=edge">\\n    <meta name="viewport" content="width=device-width, initial-scale=1">\\n    <meta name="application-name" content="\', escape=False)\nresponse.write(request.application)\nresponse.write(\'">\\n    <meta name="google-site-verification" content="">\\n      \\n      \\n    <link rel="stylesheet" href="\', escape=False)\nresponse.write(URL(\'static\',\'css/page.css\'))\nresponse.write(\'"/>\\n    <link rel="stylesheet" href="\', escape=False)\nresponse.write(URL(\'static\',\'css/bootstrap.min.css\'))\nresponse.write(\'"/>\\n    <link rel="stylesheet" href="\', escape=False)\nresponse.write(URL(\'static\',\'css/bootstrap-theme.min.css\'))\nresponse.write(\'"/>\\n    <link rel="stylesheet" href="\', escape=False)\nresponse.write(URL(\'static\',\'css/web2py-bootstrap3.css\'))\nresponse.write(\'"/>\\n    <link rel="apple-touch-icon" href="\', escape=False)\nresponse.write(URL(\'static\',\'images/waves.png\'))\nresponse.write(\'">\\n     <link rel="shortcut icon" href="\', escape=False)\nresponse.write(URL(\'static\',\'images/waves.png\'))\nresponse.write(\'" type="image/png">\\n      \\n     <title>\', escape=False)\nresponse.write(response.title or request.application)\nresponse.write(\'</title>\\n      \', escape=False)\nresponse.write(\'<script type="text/javascript"><!--\\n    // These variables are used by the web2py_ajax_init function in web2py_ajax.js (which is loaded below).\\n    var w2p_ajax_confirm_message = "\', escape=False)\nresponse.write(T(\'Are you sure you want to delete this object?\'))\nresponse.write(\'";\\n    var w2p_ajax_disable_with_message = "\', escape=False)\nresponse.write(T(\'Working...\'))\nresponse.write(\'";\\n    var w2p_ajax_date_format = "\', escape=False)\nresponse.write(T(\'%Y-%m-%d\'))\nresponse.write(\'";\\n    var w2p_ajax_datetime_format = "\', escape=False)\nresponse.write(T(\'%Y-%m-%d %H:%M:%S\'))\nresponse.write(\'";\\n    var ajax_error_500 = \\\'\', escape=False)\nresponse.write(T.M(\'An error occured, please [[reload %s]] the page\') % URL(args=request.args, vars=request.get_vars))\nresponse.write("\'\\n    //--></script>\\n", escape=False)\nresponse.files.insert(0,URL(\'static\',\'js/jquery.js\'))\nresponse.files.insert(1,URL(\'static\',\'css/calendar.css\'))\nresponse.files.insert(2,URL(\'static\',\'js/calendar.js\'))\nresponse.files.insert(3,URL(\'static\',\'js/web2py.js\'))\nresponse.include_meta()\nresponse.include_files()\nresponse.write(\'\\n\', escape=False)\nresponse.write(\' <!-- this includes jquery.js, calendar.js/.css and web2py.js -->\\n </head>\\n <body>\\n      <div class="container-fluid">\\n     <nav class="navbar navbar-default">\\n         \\n        <ul class="nav nav-tabs nav-justified">\\n           \\n          <li id=\\\'menu0\\\' role="presentation" ><a href="\', escape=False)\nresponse.write(URL(\'default\',\'index\'))\nresponse.write(\'">\\xd8\\xa7\\xd9\\x84\\xd8\\xb1\\xd8\\xa6\\xd9\\x8a\\xd8\\xb3\\xd9\\x8a\\xd8\\xa9</a></li>\\n          <li id=\\\'menu1\\\' role="presentation"><a href="\', escape=False)\nresponse.write(URL(\'default\',\'add_daily\'))\nresponse.write(\'">\\xd8\\xa7\\xd9\\x84\\xd8\\xb9\\xd9\\x85\\xd9\\x84\\xd9\\x8a\\xd8\\xa7\\xd8\\xaa \\xd8\\xa7\\xd9\\x84\\xd9\\x8a\\xd9\\x88\\xd9\\x85\\xd9\\x8a\\xd8\\xa9</a></li>\\n          <li id=\\\'menu2\\\' role="presentation"><a href="\', escape=False)\nresponse.write(URL(\'reports\',\'index\'))\nresponse.write(\'">\\xd8\\xa7\\xd9\\x84\\xd8\\xaa\\xd9\\x82\\xd8\\xa7\\xd8\\xb1\\xd9\\x8a\\xd8\\xb1 \\xd9\\x88\\xd8\\xa7\\xd9\\x84\\xd9\\x85\\xd8\\xb1\\xd8\\xa7\\xd8\\xac\\xd8\\xb9\\xd9\\x87</a></li>\\n          <li id=\\\'menu3\\\' role="presentation"><a href="\', escape=False)\nresponse.write(URL(\'default\',\'addmanage\'))\nresponse.write(\'" >\\xd8\\xb9\\xd9\\x85\\xd9\\x84\\xd9\\x8a\\xd8\\xa7\\xd8\\xaa \\xd8\\xa5\\xd8\\xaf\\xd8\\xa7\\xd8\\xb1\\xd9\\x8a\\xd9\\x87</a></li>\\n        </ul>\\n     </nav>\\n           <div class="flash alert alert-dismissable">\', escape=False)\nresponse.write(response.flash or \'\')\nresponse.write(\'</div>\\n     </div>\\n     \\n     <div class="container">\\n     \\n         \\n             \\n        \\n          \', escape=False)\nresponse.write(\'\\n        \', escape=False)\nresponse.write("\\n\\n<div class=\'order\'>\\n<div class=\'row\'>\\n   <div class=\'col-xs-8 col-md-8\'>\\n       <div class=\'well print\'><h3>\\n         \\n\\xd8\\xaa\\xd9\\x82\\xd8\\xb1\\xd9\\x8a\\xd8\\xb1 \\xd8\\xb9\\xd9\\x86 \\xd8\\xa7\\xd9\\x84\\xd9\\x81\\xd8\\xaa\\xd8\\xb1\\xd9\\x87   </h3>          \\n       </div>\\n", escape=False)\nif page==0:\n    response.write(\'\\n  <div class="col-xs-12 col-md-6">\\n\\n\', escape=False)\n    response.write(form)\n    response.write(\'\\n    </div>\\n       \', escape=False)\n    pass\nresponse.write(\'\\n</div>\\n\\n<div class="row">\\n  <div class="col-xs-8 col-md-12">\\n\\n      \\n           <table class="table table-striped">\\n               \\n          <tr><th>\\xd8\\xa7\\xd9\\x84\\xd9\\x83\\xd9\\x88\\xd8\\xaf</th><th>\\xd8\\xa7\\xd8\\xb3\\xd9\\x85 \\xd8\\xa7\\xd9\\x84\\xd8\\xb9\\xd9\\x85\\xd9\\x8a\\xd9\\x84</th><th> \\xd8\\xa7\\xd9\\x84\\xd8\\xb7\\xd8\\xa8\\xd9\\x8a\\xd8\\xa8 \\xd8\\xa7\\xd9\\x84\\xd8\\xa7\\xd8\\xb4\\xd8\\xb9\\xd8\\xa9</th><th>\\xd8\\xa7\\xd9\\x84\\xd8\\xb7\\xd8\\xa8\\xd9\\x8a\\xd8\\xa8 \\xd8\\xa7\\xd9\\x84\\xd9\\x85\\xd8\\xb9\\xd8\\xa7\\xd9\\x84\\xd8\\xac</th><th>\\xd9\\x82\\xd9\\x8a\\xd9\\x85\\xd8\\xa9 \\xd8\\xa7\\xd9\\x84\\xd9\\x81\\xd8\\xad\\xd8\\xb5</th><th>\\xd8\\xb3\\xd8\\xb9\\xd8\\xb1 \\xd8\\xb5\\xd8\\xa8\\xd8\\xba\\xd9\\x87</th><th>\\xd8\\xa7\\xd9\\x84\\xd8\\xaa\\xd9\\x83\\xd9\\x84\\xd9\\x81\\xd9\\x87 \\xd8\\xa7\\xd9\\x84\\xd9\\x83\\xd9\\x84\\xd9\\x8a\\xd9\\x87</th><th></th></tr>\\n               \', escape=False)\nfor row in rows:\n    response.write(\'\\n            <tr>\\n             <td><a href="\', escape=False)\n    response.write(URL(\'default\',\'view_order\',args=row.id))\n    response.write(\'" >\', escape=False)\n    response.write(row.id)\n    response.write(\'</td><td><a href="\', escape=False)\n    response.write(URL(\'default\',\'view_order\',args=row.id))\n    response.write(\'" >\', escape=False)\n    response.write(row.custname)\n    response.write(\' </td><td><a href="\', escape=False)\n    response.write(URL(\'default\',\'view_order\',args=row.id))\n    response.write(\'" >\', escape=False)\n    response.write(db.doct(row.docname).docname)\n    response.write(\' </td>\\n             <td><a href="\', escape=False)\n    response.write(URL(\'default\',\'view_order\',args=row.id))\n    response.write(\'" >\', escape=False)\n    response.write(row.docch)\n    response.write(\' </td>\\n        \\n         <td>\', escape=False)\n    response.write(db.prod(row.prodname).prodcost)\n    response.write(\' </td> <td>\', escape=False)\n    response.write(row.sabgha)\n    response.write(\'</td>\\n         <td> \', escape=False)\n    response.write(row.totalcost)\n    response.write(\' </td>\\n         <td>\', escape=False)\n    response.write(row.ortime)\n    response.write(\'  </td>\\n        </tr>\\n              \', escape=False)\n    pass\nresponse.write(\'\\n               <tr><td></td><td></td><td></td><td></td><td></td><td>\\xd8\\xa7\\xd8\\xac\\xd9\\x85\\xd8\\xa7\\xd9\\x84\\xd9\\x89 \\xd8\\xa7\\xd9\\x84\\xd8\\xaa\\xd9\\x83\\xd9\\x84\\xd9\\x81\\xd9\\x87</td><td>\', escape=False)\nresponse.write(todaysum)\nresponse.write(\'</td></tr>\\n     </table>\\n\\n \', escape=False)\ncrows=count[0][\'_extra\'][\'COUNT(orday.totalcost)\']\nresponse.write(\'\\n\\n\\xd8\\xa7\\xd8\\xac\\xd9\\x85\\xd8\\xa7\\xd9\\x84\\xd9\\x89 \\xd8\\xa7\\xd9\\x84\\xd8\\xa7\\xd8\\xb9\\xd8\\xaf\\xd8\\xaf\\n( \', escape=False)\nresponse.write(crows)\nresponse.write(\' )\\n\', escape=False)\nif crows>10:\n    response.write(\'\\n      \\n \', escape=False)\n    if page==0:\n        response.write(\'\\n     \', escape=False)\n        response.write(A(\'\xd8\xa7\xd9\x84\xd8\xb5\xd9\x81\xd8\xad\xd8\xa9 \xd8\xa7\xd9\x84\xd8\xaa\xd8\xa7\xd9\x84\xd9\x8a\xd8\xa9\',_class="btn  btn-success",_href=URL(args=page+1)))\n        response.write(\'\\n \', escape=False)\n    elif page+1.0>=(crows/10.0):\n        response.write(\'   \\n       \', escape=False)\n        response.write(A(\'\xd8\xa7\xd9\x84\xd8\xb5\xd9\x81\xd8\xad\xd8\xa9 \xd8\xa7\xd9\x84\xd8\xb3\xd8\xa7\xd8\xa8\xd9\x82\',_class="btn btn-warning",_href=URL(args=page-1)))\n        response.write(\'\\n \', escape=False)\n    else:\n        response.write(\'\\n     \', escape=False)\n        response.write(A(\'\xd8\xa7\xd9\x84\xd8\xb5\xd9\x81\xd8\xad\xd8\xa9 \xd8\xa7\xd9\x84\xd8\xb3\xd8\xa7\xd8\xa8\xd9\x82\',_class="btn btn-warning",_href=URL(args=page-1)))\n        response.write(\'\\n     \', escape=False)\n        response.write(A(\'\xd8\xa7\xd9\x84\xd8\xb5\xd9\x81\xd8\xad\xd8\xa9 \xd8\xa7\xd9\x84\xd8\xaa\xd8\xa7\xd9\x84\xd9\x8a\xd8\xa9\',_class="btn  btn-success",_href=URL(args=page+1)))\n        response.write(\'\\n    \', escape=False)\n        pass\n    response.write(\'\\n\', escape=False)\n    pass\nresponse.write(\'\\n      \\n    </div>\\n</div>\\n\', escape=False)\nresponse.write(\'\\n        \', escape=False)\nresponse.write(\'\\n         \\n         \\n     \\n     </div>\\n     \\n     \\n     \\n     \\n     \\n     \\n     <footer class="footer">\\n         <aside class="left">\\n          \', escape=False)\nresponse.write(response.logo)\nresponse.write(\'\\n         </aside>\\n         \\n         \\n     </footer>\\n        <script src="\', escape=False)\nresponse.write(URL(\'static\',\'js/jquery-2.1.4.min.js\'))\nresponse.write(\'"></script>\\n        <script src="\', escape=False)\nresponse.write(URL(\'static\',\'js/app.js\'))\nresponse.write(\'"></script>\\n        <script src="\', escape=False)\nresponse.write(URL(\'static\',\'js/jquery.js\'))\nresponse.write(\'"></script>\\n        <script src="\', escape=False)\nresponse.write(URL(\'static\',\'js/modernizr-2.8.3.min.js\'))\nresponse.write(\'"></script>\\n        <script src="\', escape=False)\nresponse.write(URL(\'static\',\'js/bootstrap.min.js\'))\nresponse.write(\'"></script>\\n\\n   </body>\\n</html>\\n\', escape=False)'
p7
sS'snapshot'
p8
(dp9
S'exception'
p10
(dp11
S'__getslice__'
p12
S"<method-wrapper '__getslice__' of exceptions.KeyError object>"
p13
sS'__str__'
p14
S"<method-wrapper '__str__' of exceptions.KeyError object>"
p15
sS'__reduce__'
p16
S'<built-in method __reduce__ of exceptions.KeyError object>'
p17
sS'__dict__'
p18
S'{}'
p19
sS'message'
p20
S"'COUNT(orday.totalcost)'"
p21
sS'__sizeof__'
p22
S'<built-in method __sizeof__ of exceptions.KeyError object>'
p23
sS'__init__'
p24
S"<method-wrapper '__init__' of exceptions.KeyError object>"
p25
sS'__setattr__'
p26
S"<method-wrapper '__setattr__' of exceptions.KeyError object>"
p27
sS'__reduce_ex__'
p28
S'<built-in method __reduce_ex__ of exceptions.KeyError object>'
p29
sS'__new__'
p30
S'<built-in method __new__ of type object>'
p31
sS'__format__'
p32
S'<built-in method __format__ of exceptions.KeyError object>'
p33
sS'__class__'
p34
S"<type 'exceptions.KeyError'>"
p35
sS'__doc__'
p36
S"'Mapping key not found.'"
p37
sS'__getitem__'
p38
S"<method-wrapper '__getitem__' of exceptions.KeyError object>"
p39
sS'__setstate__'
p40
S'<built-in method __setstate__ of exceptions.KeyError object>'
p41
sS'__getattribute__'
p42
S"<method-wrapper '__getattribute__' of exceptions.KeyError object>"
p43
sS'args'
p44
S"('COUNT(orday.totalcost)',)"
p45
sS'__subclasshook__'
p46
S'<built-in method __subclasshook__ of type object>'
p47
sS'__unicode__'
p48
S'<built-in method __unicode__ of exceptions.KeyError object>'
p49
sS'__delattr__'
p50
S"<method-wrapper '__delattr__' of exceptions.KeyError object>"
p51
sS'__repr__'
p52
S"<method-wrapper '__repr__' of exceptions.KeyError object>"
p53
sS'__hash__'
p54
S"<method-wrapper '__hash__' of exceptions.KeyError object>"
p55
ssS'evalue'
p56
S"'COUNT(orday.totalcost)'"
p57
sS'request'
p58
cgluon.html
XML_unpickle
p59
(S's\x88`\x00\x00<div><table><tr><td style="font-weight:bold;vertical-align:top;">ajax</td><td style="vertical-align:top;">:</td><td><div>False</div></td></tr><tr><td style="font-weight:bold;vertical-align:top;">application</td><td style="vertical-align:top;">:</td><td><div>asha3a</div></td></tr><tr><td style="font-weight:bold;vertical-align:top;">args</td><td style="vertical-align:top;">:</td><td><div><table></table></div></td></tr><tr><td style="font-weight:bold;vertical-align:top;">cid</td><td style="vertical-align:top;">:</td><td><div>None</div></td></tr><tr><td style="font-weight:bold;vertical-align:top;">client</td><td style="vertical-align:top;">:</td><td><div>45.246.114.176</div></td></tr><tr><td style="font-weight:bold;vertical-align:top;">controller</td><td style="vertical-align:top;">:</td><td><div>reports</div></td></tr><tr><td style="font-weight:bold;vertical-align:top;">cookies</td><td style="vertical-align:top;">:</td><td><div><table><tr><td style="font-weight:bold;vertical-align:top;">session_id_admin</td><td style="vertical-align:top;">:</td><td><div>45.246.114.176-4902478c-288f-40d0-b065-39f383f38b91<table><tr><td style="font-weight:bold;vertical-align:top;">comment</td><td style="vertical-align:top;">:</td><td><div></div></td></tr><tr><td style="font-weight:bold;vertical-align:top;">domain</td><td style="vertical-align:top;">:</td><td><div></div></td></tr><tr><td style="font-weight:bold;vertical-align:top;">expires</td><td style="vertical-align:top;">:</td><td><div></div></td></tr><tr><td style="font-weight:bold;vertical-align:top;">httponly</td><td style="vertical-align:top;">:</td><td><div></div></td></tr><tr><td style="font-weight:bold;vertical-align:top;">max-age</td><td style="vertical-align:top;">:</td><td><div></div></td></tr><tr><td style="font-weight:bold;vertical-align:top;">path</td><td style="vertical-align:top;">:</td><td><div></div></td></tr><tr><td style="font-weight:bold;vertical-align:top;">secure</td><td style="vertical-align:top;">:</td><td><div></div></td></tr><tr><td style="font-weight:bold;vertical-align:top;">version</td><td style="vertical-align:top;">:</td><td><div></div></td></tr></table></div></td></tr><tr><td style="font-weight:bold;vertical-align:top;">session_id_asha3a</td><td style="vertical-align:top;">:</td><td><div>45.246.114.176-96e3e3cf-4920-4027-b744-25b974aaa135<table><tr><td style="font-weight:bold;vertical-align:top;">comment</td><td style="vertical-align:top;">:</td><td><div></div></td></tr><tr><td style="font-weight:bold;vertical-align:top;">domain</td><td style="vertical-align:top;">:</td><td><div></div></td></tr><tr><td style="font-weight:bold;vertical-align:top;">expires</td><td style="vertical-align:top;">:</td><td><div></div></td></tr><tr><td style="font-weight:bold;vertical-align:top;">httponly</td><td style="vertical-align:top;">:</td><td><div></div></td></tr><tr><td style="font-weight:bold;vertical-align:top;">max-age</td><td style="vertical-align:top;">:</td><td><div></div></td></tr><tr><td style="font-weight:bold;vertical-align:top;">path</td><td style="vertical-align:top;">:</td><td><div></div></td></tr><tr><td style="font-weight:bold;vertical-align:top;">secure</td><td style="vertical-align:top;">:</td><td><div></div></td></tr><tr><td style="font-weight:bold;vertical-align:top;">version</td><td style="vertical-align:top;">:</td><td><div></div></td></tr></table></div></td></tr><tr><td style="font-weight:bold;vertical-align:top;">session_id_welcome</td><td style="vertical-align:top;">:</td><td><div>45.246.114.176-4ddaeb8a-09dc-4b25-a27b-1e30099b83fa<table><tr><td style="font-weight:bold;vertical-align:top;">comment</td><td style="vertical-align:top;">:</td><td><div></div></td></tr><tr><td style="font-weight:bold;vertical-align:top;">domain</td><td style="vertical-align:top;">:</td><td><div></div></td></tr><tr><td style="font-weight:bold;vertical-align:top;">expires</td><td style="vertical-align:top;">:</td><td><div></div></td></tr><tr><td style="font-weight:bold;vertical-align:top;">httponly</td><td style="vertical-align:top;">:</td><td><div></div></td></tr><tr><td style="font-weight:bold;vertical-align:top;">max-age</td><td style="vertical-align:top;">:</td><td><div></div></td></tr><tr><td style="font-weight:bold;vertical-align:top;">path</td><td style="vertical-align:top;">:</td><td><div></div></td></tr><tr><td style="font-weight:bold;vertical-align:top;">secure</td><td style="vertical-align:top;">:</td><td><div></div></td></tr><tr><td style="font-weight:bold;vertical-align:top;">version</td><td style="vertical-align:top;">:</td><td><div></div></td></tr></table></div></td></tr><tr><td style="font-weight:bold;vertical-align:top;">session_id_ydo</td><td style="vertical-align:top;">:</td><td><div>45.246.114.176-e808bac4-fd37-41d1-aed5-f51b48e6f27e<table><tr><td style="font-weight:bold;vertical-align:top;">comment</td><td style="vertical-align:top;">:</td><td><div></div></td></tr><tr><td style="font-weight:bold;vertical-align:top;">domain</td><td style="vertical-align:top;">:</td><td><div></div></td></tr><tr><td style="font-weight:bold;vertical-align:top;">expires</td><td style="vertical-align:top;">:</td><td><div></div></td></tr><tr><td style="font-weight:bold;vertical-align:top;">httponly</td><td style="vertical-align:top;">:</td><td><div></div></td></tr><tr><td style="font-weight:bold;vertical-align:top;">max-age</td><td style="vertical-align:top;">:</td><td><div></div></td></tr><tr><td style="font-weight:bold;vertical-align:top;">path</td><td style="vertical-align:top;">:</td><td><div></div></td></tr><tr><td style="font-weight:bold;vertical-align:top;">secure</td><td style="vertical-align:top;">:</td><td><div></div></td></tr><tr><td style="font-weight:bold;vertical-align:top;">version</td><td style="vertical-align:top;">:</td><td><div></div></td></tr></table></div></td></tr></table></div></td></tr><tr><td style="font-weight:bold;vertical-align:top;">env</td><td style="vertical-align:top;">:</td><td><div><table><tr><td style="font-weight:bold;vertical-align:top;">CONTENT_LENGTH</td><td style="vertical-align:top;">:</td><td><div></div></td></tr><tr><td style="font-weight:bold;vertical-align:top;">CONTENT_TYPE</td><td style="vertical-align:top;">:</td><td><div></div></td></tr><tr><td style="font-weight:bold;vertical-align:top;">DOCUMENT_ROOT</td><td style="vertical-align:top;">:</td><td><div>/usr/local/openresty/nginx/html</div></td></tr><tr><td style="font-weight:bold;vertical-align:top;">HTTPS</td><td style="vertical-align:top;">:</td><td><div>on</div></td></tr><tr><td style="font-weight:bold;vertical-align:top;">HTTP_ACCEPT</td><td style="vertical-align:top;">:</td><td><div>text/html,application/xhtml+xml,application/xml;q=0.9,image/webp,image/apng,*/*;q=0.8</div></td></tr><tr><td style="font-weight:bold;vertical-align:top;">HTTP_ACCEPT_ENCODING</td><td style="vertical-align:top;">:</td><td><div>gzip, deflate, br</div></td></tr><tr><td style="font-weight:bold;vertical-align:top;">HTTP_ACCEPT_LANGUAGE</td><td style="vertical-align:top;">:</td><td><div>en-US,en;q=0.9,ar;q=0.8</div></td></tr><tr><td style="font-weight:bold;vertical-align:top;">HTTP_CACHE_CONTROL</td><td style="vertical-align:top;">:</td><td><div>max-age=0</div></td></tr><tr><td style="font-weight:bold;vertical-align:top;">HTTP_CONNECTION</td><td style="vertical-align:top;">:</td><td><div>close</div></td></tr><tr><td style="font-weight:bold;vertical-align:top;">HTTP_COOKIE</td><td style="vertical-align:top;">:</td><td><div>_ga=GA1.2.2101154729.1528416246; _gid=GA1.2.1046784470.1534762165; session_id_admin=45.246.114.176-4902478c-288f-40d0-b065-39f383f38b91; session_id_welcome=45.246.114.176-4ddaeb8a-09dc-4b25-a27b-1e30099b83fa; session_id_ydo=45.246.114.176-e808bac4-fd37-41d1-aed5-f51b48e6f27e; session_id_asha3a=45.246.114.176-96e3e3cf-4920-4027-b744-25b974aaa135</div></td></tr><tr><td style="font-weight:bold;vertical-align:top;">HTTP_HOST</td><td style="vertical-align:top;">:</td><td><div>itmbastawi.pythonanywhere.com</div></td></tr><tr><td style="font-weight:bold;vertical-align:top;">HTTP_REFERER</td><td style="vertical-align:top;">:</td><td><div>https://itmbastawi.pythonanywhere.com/asha3a/reports/index</div></td></tr><tr><td style="font-weight:bold;vertical-align:top;">HTTP_UPGRADE_INSECURE_REQUESTS</td><td style="vertical-align:top;">:</td><td><div>1</div></td></tr><tr><td style="font-weight:bold;vertical-align:top;">HTTP_USER_AGENT</td><td style="vertical-align:top;">:</td><td><div>Mozilla/5.0 (X11; Linux x86_64) AppleWebKit/537.36 (KHTML, like Gecko) Ubuntu Chromium/68.0.3440.75 Chrome/68.0.3440.75 Safari/537.36</div></td></tr><tr><td style="font-weight:bold;vertical-align:top;">HTTP_X_FORWARDED_FOR</td><td style="vertical-align:top;">:</td><td><div>45.246.114.176</div></td></tr><tr><td style="font-weight:bold;vertical-align:top;">HTTP_X_REAL_IP</td><td style="vertical-align:top;">:</td><td><div>45.246.114.176</div></td></tr><tr><td style="font-weight:bold;vertical-align:top;">PATH_INFO</td><td style="vertical-align:top;">:</td><td><div>/asha3a/reports/orders</div></td></tr><tr><td style="font-weight:bold;vertical-align:top;">QUERY_STRING</td><td style="vertical-align:top;">:</td><td><div></div></td></tr><tr><td style="font-weight:bold;vertical-align:top;">REMOTE_ADDR</td><td style="vertical-align:top;">:</td><td><div>10.0.0.21</div></td></tr><tr><td style="font-weight:bold;vertical-align:top;">REMOTE_PORT</td><td style="vertical-align:top;">:</td><td><div>42284</div></td></tr><tr><td style="font-weight:bold;vertical-align:top;">REQUEST_METHOD</td><td style="vertical-align:top;">:</td><td><div>GET</div></td></tr><tr><td style="font-weight:bold;vertical-align:top;">REQUEST_URI</td><td style="vertical-align:top;">:</td><td><div>/asha3a/reports/orders</div></td></tr><tr><td style="font-weight:bold;vertical-align:top;">SCRIPT_NAME</td><td style="vertical-align:top;">:</td><td><div></div></td></tr><tr><td style="font-weight:bold;vertical-align:top;">SERVER_NAME</td><td style="vertical-align:top;">:</td><td><div>itmbastawi.pythonanywhere.com</div></td></tr><tr><td style="font-weight:bold;vertical-align:top;">SERVER_PORT</td><td style="vertical-align:top;">:</td><td><div>443</div></td></tr><tr><td style="font-weight:bold;vertical-align:top;">SERVER_PROTOCOL</td><td style="vertical-align:top;">:</td><td><div>HTTP/1.1</div></td></tr><tr><td style="font-weight:bold;vertical-align:top;">app_folders</td><td style="vertical-align:top;">:</td><td><div>set([&#x27;/home/itmbastawi/web2py/applications/welcome/&#x27;, &#x27;/home/itmbastawi/web2py/applications/ydo/&#x27;, &#x27;/home/itmbastawi/web2py/applications/admin/&#x27;, &#x27;/home/itmbastawi/web2py/applications/asha3a/&#x27;])</div></td></tr><tr><td style="font-weight:bold;vertical-align:top;">applications_parent</td><td style="vertical-align:top;">:</td><td><div>/home/itmbastawi/web2py</div></td></tr><tr><td style="font-weight:bold;vertical-align:top;">content_length</td><td style="vertical-align:top;">:</td><td><div></div></td></tr><tr><td style="font-weight:bold;vertical-align:top;">content_type</td><td style="vertical-align:top;">:</td><td><div></div></td></tr><tr><td style="font-weight:bold;vertical-align:top;">db_sessions</td><td style="vertical-align:top;">:</td><td><div>set([])</div></td></tr><tr><td style="font-weight:bold;vertical-align:top;">debugging</td><td style="vertical-align:top;">:</td><td><div>True</div></td></tr><tr><td style="font-weight:bold;vertical-align:top;">document_root</td><td style="vertical-align:top;">:</td><td><div>/usr/local/openresty/nginx/html</div></td></tr><tr><td style="font-weight:bold;vertical-align:top;">gluon_parent</td><td style="vertical-align:top;">:</td><td><div>/home/itmbastawi/web2py</div></td></tr><tr><td style="font-weight:bold;vertical-align:top;">http_accept</td><td style="vertical-align:top;">:</td><td><div>text/html,application/xhtml+xml,application/xml;q=0.9,image/webp,image/apng,*/*;q=0.8</div></td></tr><tr><td style="font-weight:bold;vertical-align:top;">http_accept_encoding</td><td style="vertical-align:top;">:</td><td><div>gzip, deflate, br</div></td></tr><tr><td style="font-weight:bold;vertical-align:top;">http_accept_language</td><td style="vertical-align:top;">:</td><td><div>en-US,en;q=0.9,ar;q=0.8</div></td></tr><tr><td style="font-weight:bold;vertical-align:top;">http_cache_control</td><td style="vertical-align:top;">:</td><td><div>max-age=0</div></td></tr><tr><td style="font-weight:bold;vertical-align:top;">http_connection</td><td style="vertical-align:top;">:</td><td><div>close</div></td></tr><tr><td style="font-weight:bold;vertical-align:top;">http_cookie</td><td style="vertical-align:top;">:</td><td><div>_ga=GA1.2.2101154729.1528416246; _gid=GA1.2.1046784470.1534762165; session_id_admin=45.246.114.176-4902478c-288f-40d0-b065-39f383f38b91; session_id_welcome=45.246.114.176-4ddaeb8a-09dc-4b25-a27b-1e30099b83fa; session_id_ydo=45.246.114.176-e808bac4-fd37-41d1-aed5-f51b48e6f27e; session_id_asha3a=45.246.114.176-96e3e3cf-4920-4027-b744-25b974aaa135</div></td></tr><tr><td style="font-weight:bold;vertical-align:top;">http_host</td><td style="vertical-align:top;">:</td><td><div>itmbastawi.pythonanywhere.com</div></td></tr><tr><td style="font-weight:bold;vertical-align:top;">http_referer</td><td style="vertical-align:top;">:</td><td><div>https://itmbastawi.pythonanywhere.com/asha3a/reports/index</div></td></tr><tr><td style="font-weight:bold;vertical-align:top;">http_upgrade_insecure_requests</td><td style="vertical-align:top;">:</td><td><div>1</div></td></tr><tr><td style="font-weight:bold;vertical-align:top;">http_user_agent</td><td style="vertical-align:top;">:</td><td><div>Mozilla/5.0 (X11; Linux x86_64) AppleWebKit/537.36 (KHTML, like Gecko) Ubuntu Chromium/68.0.3440.75 Chrome/68.0.3440.75 Safari/537.36</div></td></tr><tr><td style="font-weight:bold;vertical-align:top;">http_x_forwarded_for</td><td style="vertical-align:top;">:</td><td><div>45.246.114.176</div></td></tr><tr><td style="font-weight:bold;vertical-align:top;">http_x_real_ip</td><td style="vertical-align:top;">:</td><td><div>45.246.114.176</div></td></tr><tr><td style="font-weight:bold;vertical-align:top;">https</td><td style="vertical-align:top;">:</td><td><div>on</div></td></tr><tr><td style="font-weight:bold;vertical-align:top;">is_jython</td><td style="vertical-align:top;">:</td><td><div>False</div></td></tr><tr><td style="font-weight:bold;vertical-align:top;">is_py2</td><td style="vertical-align:top;">:</td><td><div>True</div></td></tr><tr><td style="font-weight:bold;vertical-align:top;">is_pypy</td><td style="vertical-align:top;">:</td><td><div>False</div></td></tr><tr><td style="font-weight:bold;vertical-align:top;">is_source</td><td style="vertical-align:top;">:</td><td><div>True</div></td></tr><tr><td style="font-weight:bold;vertical-align:top;">local_hosts</td><td style="vertical-align:top;">:</td><td><div><table><tr><td><div>35.173.69.207</div></td></tr><tr><td><div>::ffff:127.0.0.1</div></td></tr><tr><td><div>::1</div></td></tr><tr><td><div>giles-liveweb4</div></td></tr><tr><td><div>itmbastawi.pythonanywhere.com</div></td></tr><tr><td><div>127.0.0.1</div></td></tr><tr><td><div>localhost</div></td></tr></table></div></td></tr><tr><td style="font-weight:bold;vertical-align:top;">path_info</td><td style="vertical-align:top;">:</td><td><div>/asha3a/reports/orders</div></td></tr><tr><td style="font-weight:bold;vertical-align:top;">query_string</td><td style="vertical-align:top;">:</td><td><div></div></td></tr><tr><td style="font-weight:bold;vertical-align:top;">remote_addr</td><td style="vertical-align:top;">:</td><td><div>10.0.0.21</div></td></tr><tr><td style="font-weight:bold;vertical-align:top;">remote_port</td><td style="vertical-align:top;">:</td><td><div>42284</div></td></tr><tr><td style="font-weight:bold;vertical-align:top;">request_method</td><td style="vertical-align:top;">:</td><td><div>GET</div></td></tr><tr><td style="font-weight:bold;vertical-align:top;">request_uri</td><td style="vertical-align:top;">:</td><td><div>/asha3a/reports/orders</div></td></tr><tr><td style="font-weight:bold;vertical-align:top;">script_name</td><td style="vertical-align:top;">:</td><td><div></div></td></tr><tr><td style="font-weight:bold;vertical-align:top;">server_name</td><td style="vertical-align:top;">:</td><td><div>itmbastawi.pythonanywhere.com</div></td></tr><tr><td style="font-weight:bold;vertical-align:top;">server_port</td><td style="vertical-align:top;">:</td><td><div>443</div></td></tr><tr><td style="font-weight:bold;vertical-align:top;">server_protocol</td><td style="vertical-align:top;">:</td><td><div>HTTP/1.1</div></td></tr><tr><td style="font-weight:bold;vertical-align:top;">uwsgi.node</td><td style="vertical-align:top;">:</td><td><div>giles-liveweb4</div></td></tr><tr><td style="font-weight:bold;vertical-align:top;">uwsgi.version</td><td style="vertical-align:top;">:</td><td><div>2.0.14</div></td></tr><tr><td style="font-weight:bold;vertical-align:top;">uwsgi_node</td><td style="vertical-align:top;">:</td><td><div>giles-liveweb4</div></td></tr><tr><td style="font-weight:bold;vertical-align:top;">uwsgi_version</td><td style="vertical-align:top;">:</td><td><div>2.0.14</div></td></tr><tr><td style="font-weight:bold;vertical-align:top;">web2py_path</td><td style="vertical-align:top;">:</td><td><div>/home/itmbastawi/web2py</div></td></tr><tr><td style="font-weight:bold;vertical-align:top;">web2py_version</td><td style="vertical-align:top;">:</td><td><div>2.17.1-stable+timestamp.2018.08.06.01.02.56</div></td></tr><tr><td style="font-weight:bold;vertical-align:top;">wsgi.errors</td><td style="vertical-align:top;">:</td><td><div>&lt;uwsgi_file__bin_user_wsgi_wrapper.ErrorLogFile object at 0x7fe21468b990&gt;</div></td></tr><tr><td style="font-weight:bold;vertical-align:top;">wsgi.file_wrapper</td><td style="vertical-align:top;">:</td><td><div>&lt;built-in function uwsgi_sendfile&gt;</div></td></tr><tr><td style="font-weight:bold;vertical-align:top;">wsgi.input</td><td style="vertical-align:top;">:</td><td><div>&lt;uwsgi._Input object at 0x7fe213a16d68&gt;</div></td></tr><tr><td style="font-weight:bold;vertical-align:top;">wsgi.multiprocess</td><td style="vertical-align:top;">:</td><td><div>False</div></td></tr><tr><td style="font-weight:bold;vertical-align:top;">wsgi.multithread</td><td style="vertical-align:top;">:</td><td><div>False</div></td></tr><tr><td style="font-weight:bold;vertical-align:top;">wsgi.run_once</td><td style="vertical-align:top;">:</td><td><div>False</div></td></tr><tr><td style="font-weight:bold;vertical-align:top;">wsgi.url_scheme</td><td style="vertical-align:top;">:</td><td><div>https</div></td></tr><tr><td style="font-weight:bold;vertical-align:top;">wsgi.version</td><td style="vertical-align:top;">:</td><td><div><table><tr><td><div>1</div></td></tr><tr><td><div>0</div></td></tr></table></div></td></tr><tr><td style="font-weight:bold;vertical-align:top;">wsgi_errors</td><td style="vertical-align:top;">:</td><td><div>&lt;uwsgi_file__bin_user_wsgi_wrapper.ErrorLogFile object at 0x7fe21468b990&gt;</div></td></tr><tr><td style="font-weight:bold;vertical-align:top;">wsgi_file_wrapper</td><td style="vertical-align:top;">:</td><td><div>&lt;built-in function uwsgi_sendfile&gt;</div></td></tr><tr><td style="font-weight:bold;vertical-align:top;">wsgi_input</td><td style="vertical-align:top;">:</td><td><div>&lt;uwsgi._Input object at 0x7fe213a16d68&gt;</div></td></tr><tr><td style="font-weight:bold;vertical-align:top;">wsgi_multiprocess</td><td style="vertical-align:top;">:</td><td><div>False</div></td></tr><tr><td style="font-weight:bold;vertical-align:top;">wsgi_multithread</td><td style="vertical-align:top;">:</td><td><div>False</div></td></tr><tr><td style="font-weight:bold;vertical-align:top;">wsgi_run_once</td><td style="vertical-align:top;">:</td><td><div>False</div></td></tr><tr><td style="font-weight:bold;vertical-align:top;">wsgi_url_scheme</td><td style="vertical-align:top;">:</td><td><div>https</div></td></tr><tr><td style="font-weight:bold;vertical-align:top;">wsgi_version</td><td style="vertical-align:top;">:</td><td><div><table><tr><td><div>1</div></td></tr><tr><td><div>0</div></td></tr></table></div></td></tr></table></div></td></tr><tr><td style="font-weight:bold;vertical-align:top;">extension</td><td style="vertical-align:top;">:</td><td><div>html</div></td></tr><tr><td style="font-weight:bold;vertical-align:top;">folder</td><td style="vertical-align:top;">:</td><td><div>/home/itmbastawi/web2py/applications/asha3a/</div></td></tr><tr><td style="font-weight:bold;vertical-align:top;">function</td><td style="vertical-align:top;">:</td><td><div>orders</div></td></tr><tr><td style="font-weight:bold;vertical-align:top;">global_settings</td><td style="vertical-align:top;">:</td><td><div><table><tr><td style="font-weight:bold;vertical-align:top;">app_folders</td><td style="vertical-align:top;">:</td><td><div>set([&#x27;/home/itmbastawi/web2py/applications/welcome/&#x27;, &#x27;/home/itmbastawi/web2py/applications/ydo/&#x27;, &#x27;/home/itmbastawi/web2py/applications/admin/&#x27;, &#x27;/home/itmbastawi/web2py/applications/asha3a/&#x27;])</div></td></tr><tr><td style="font-weight:bold;vertical-align:top;">applications_parent</td><td style="vertical-align:top;">:</td><td><div>/home/itmbastawi/web2py</div></td></tr><tr><td style="font-weight:bold;vertical-align:top;">db_sessions</td><td style="vertical-align:top;">:</td><td><div>set([])</div></td></tr><tr><td style="font-weight:bold;vertical-align:top;">debugging</td><td style="vertical-align:top;">:</td><td><div>True</div></td></tr><tr><td style="font-weight:bold;vertical-align:top;">gluon_parent</td><td style="vertical-align:top;">:</td><td><div>/home/itmbastawi/web2py</div></td></tr><tr><td style="font-weight:bold;vertical-align:top;">is_jython</td><td style="vertical-align:top;">:</td><td><div>False</div></td></tr><tr><td style="font-weight:bold;vertical-align:top;">is_py2</td><td style="vertical-align:top;">:</td><td><div>True</div></td></tr><tr><td style="font-weight:bold;vertical-align:top;">is_pypy</td><td style="vertical-align:top;">:</td><td><div>False</div></td></tr><tr><td style="font-weight:bold;vertical-align:top;">is_source</td><td style="vertical-align:top;">:</td><td><div>True</div></td></tr><tr><td style="font-weight:bold;vertical-align:top;">local_hosts</td><td style="vertical-align:top;">:</td><td><div><table><tr><td><div>35.173.69.207</div></td></tr><tr><td><div>::ffff:127.0.0.1</div></td></tr><tr><td><div>::1</div></td></tr><tr><td><div>giles-liveweb4</div></td></tr><tr><td><div>itmbastawi.pythonanywhere.com</div></td></tr><tr><td><div>127.0.0.1</div></td></tr><tr><td><div>localhost</div></td></tr></table></div></td></tr><tr><td style="font-weight:bold;vertical-align:top;">web2py_version</td><td style="vertical-align:top;">:</td><td><div>2.17.1-stable+timestamp.2018.08.06.01.02.56</div></td></tr></table></div></td></tr><tr><td style="font-weight:bold;vertical-align:top;">is_https</td><td style="vertical-align:top;">:</td><td><div>True</div></td></tr><tr><td style="font-weight:bold;vertical-align:top;">is_local</td><td style="vertical-align:top;">:</td><td><div>False</div></td></tr><tr><td style="font-weight:bold;vertical-align:top;">is_restful</td><td style="vertical-align:top;">:</td><td><div>False</div></td></tr><tr><td style="font-weight:bold;vertical-align:top;">is_scheduler</td><td style="vertical-align:top;">:</td><td><div>False</div></td></tr><tr><td style="font-weight:bold;vertical-align:top;">is_shell</td><td style="vertical-align:top;">:</td><td><div>False</div></td></tr><tr><td style="font-weight:bold;vertical-align:top;">method</td><td style="vertical-align:top;">:</td><td><div>GET</div></td></tr><tr><td style="font-weight:bold;vertical-align:top;">now</td><td style="vertical-align:top;">:</td><td><div>datetime.datetime(2018, 8, 20, 15, 3, 15, 70755)</div></td></tr><tr><td style="font-weight:bold;vertical-align:top;">raw_args</td><td style="vertical-align:top;">:</td><td><div></div></td></tr><tr><td style="font-weight:bold;vertical-align:top;">raw_extension</td><td style="vertical-align:top;">:</td><td><div>None</div></td></tr><tr><td style="font-weight:bold;vertical-align:top;">url</td><td style="vertical-align:top;">:</td><td><div>/asha3a/reports/orders</div></td></tr><tr><td style="font-weight:bold;vertical-align:top;">utcnow</td><td style="vertical-align:top;">:</td><td><div>datetime.datetime(2018, 8, 20, 15, 3, 15, 70777)</div></td></tr><tr><td style="font-weight:bold;vertical-align:top;">wsgi</td><td style="vertical-align:top;">:</td><td><div>&lt;gluon.main.LazyWSGI object at 0x7fe20a140e50&gt;</div></td></tr></table></div>'
tRp60
sS'frames'
p61
(lp62
(dp63
S'file'
p64
S'/home/itmbastawi/web2py/gluon/restricted.py'
p65
sS'dump'
p66
(dp67
S'environment'
p68
S"{'A': <class 'gluon.html.A'>, 'ANY_OF': <class 'gluon.validators.ANY_OF'>, 'ASSIGNJS': <function ASSIGNJS>, 'AppConfig': <function AppConfig>, 'Auth': <class 'gluon.tools.Auth'>, 'B': <class 'gluon.html.B'>, 'BEAUTIFY': <class 'gluon.html.BEAUTIFY'>, 'BODY': <class 'gluon.html.BODY'>, 'BR': <class 'gluon.html.BR'>, 'BUTTON': <class 'gluon.html.BUTTON'>, ...}"
p69
sS'ccode'
p70
S'<code object <module> at 0x7fe20a2d95b0, file "/...ations/asha3a/views/reports/orders.html", line 1>'
p71
ssS'lnum'
p72
I219
sS'lines'
p73
(dp74
I214
S'    if environment is None:'
p75
sI215
S'        environment = {}'
p76
sI216
S"    environment['__file__'] = layer"
p77
sI217
S"    environment['__name__'] = '__restricted__'"
p78
sI218
S'    try:'
p79
sI219
S'        exec(ccode, environment)'
p80
sI220
S'    except HTTP:'
p81
sI221
S'        raise'
p82
sI222
S'    except RestrictedError:'
p83
sI223
S'        # do not encapsulate (obfuscate) the original RestrictedError'
p84
ssS'call'
p85
S'(ccode=<code object <module> at 0x7fe20a2d95b0, file "/...ations/asha3a/views/reports/orders.html", line 1>, environment={\'A\': <class \'gluon.html.A\'>, \'ANY_OF\': <class \'gluon.validators.ANY_OF\'>, \'ASSIGNJS\': <function ASSIGNJS>, \'AppConfig\': <function AppConfig>, \'Auth\': <class \'gluon.tools.Auth\'>, \'B\': <class \'gluon.html.B\'>, \'BEAUTIFY\': <class \'gluon.html.BEAUTIFY\'>, \'BODY\': <class \'gluon.html.BODY\'>, \'BR\': <class \'gluon.html.BR\'>, \'BUTTON\': <class \'gluon.html.BUTTON\'>, ...}, layer=\'/home/itmbastawi/web2py/applications/asha3a/views/reports/orders.html\', scode=\'response.write(\\\'<!DOCTYPE html>\\\\n<html lang="ar".../script>\\\\n\\\\n   </body>\\\\n</html>\\\\n\\\', escape=False)\')'
p86
sS'func'
p87
S'restricted'
p88
sa(dp89
g64
S'/home/itmbastawi/web2py/applications/asha3a/views/reports/orders.html'
p90
sg66
(dp91
sg72
I85
sg73
(dp92
I76
S"    response.write('</td>\\n         <td> ', escape=False)"
p93
sI77
S'    response.write(row.totalcost)'
p94
sI78
S"    response.write(' </td>\\n         <td>', escape=False)"
p95
sI79
S'    response.write(row.ortime)'
p96
sI80
S"    response.write('  </td>\\n        </tr>\\n              ', escape=False)"
p97
sI81
S'    pass'
p98
sI82
S"response.write('\\n               <tr><td></td><td></td><td></td><td></td><td></td><td>\\xd8\\xa7\\xd8\\xac\\xd9\\x85\\xd8\\xa7\\xd9\\x84\\xd9\\x89 \\xd8\\xa7\\xd9\\x84\\xd8\\xaa\\xd9\\x83\\xd9\\x84\\xd9\\x81\\xd9\\x87</td><td>', escape=False)"
p99
sI83
S'response.write(todaysum)'
p100
sI84
S"response.write('</td></tr>\\n     </table>\\n\\n ', escape=False)"
p101
sI85
S"crows=count[0]['_extra']['COUNT(orday.totalcost)']"
p102
sI86
S"response.write('\\n\\n\\xd8\\xa7\\xd8\\xac\\xd9\\x85\\xd8\\xa7\\xd9\\x84\\xd9\\x89 \\xd8\\xa7\\xd9\\x84\\xd8\\xa7\\xd8\\xb9\\xd8\\xaf\\xd8\\xaf\\n( ', escape=False)"
p103
sI87
S'response.write(crows)'
p104
sI88
S"response.write(' )\\n', escape=False)"
p105
sI89
S'if crows>10:'
p106
sI90
S"    response.write('\\n      \\n ', escape=False)"
p107
sI91
S'    if page==0:'
p108
sI92
S"        response.write('\\n     ', escape=False)"
p109
sI93
S'        response.write(A(\'\xd8\xa7\xd9\x84\xd8\xb5\xd9\x81\xd8\xad\xd8\xa9 \xd8\xa7\xd9\x84\xd8\xaa\xd8\xa7\xd9\x84\xd9\x8a\xd8\xa9\',_class="btn  btn-success",_href=URL(args=page+1)))'
p110
sI94
S"        response.write('\\n ', escape=False)"
p111
sI95
S'    elif page+1.0>=(crows/10.0):'
p112
ssg85
S'()'
p113
sg87
S'<module>'
p114
sa(dp115
g64
S'/home/itmbastawi/web2py/gluon/packages/dal/pydal/objects.py'
p116
sg66
(dp117
S'key'
p118
S"'COUNT(orday.totalcost)'"
p119
sS'builtinKeyError'
p120
S"<type 'exceptions.KeyError'>"
p121
ssg72
I96
sg73
(dp122
I96
S'        raise KeyError(key)'
p123
sI97
S''
sI98
S"    __str__ = __repr__ = lambda self: '<Row %s>' % \\"
p124
sI99
S'        self.as_dict(custom_types=[LazySet])'
p125
sI100
S''
sI91
S'                self[key] = e(key)'
p126
sI92
S'                return self[key]'
p127
sI93
S'        except Exception as e:'
p128
sI94
S'            raise e'
p129
sI95
S''
ssg85
S'(self=<Row {\'COUNT("orday"."totalcost")\': 30L}>, k=\'COUNT(orday.totalcost)\')'
p130
sg87
g38
sasS'pyver'
p131
S'Python 2.7.6: /usr/local/bin/uwsgi (prefix: /usr)'
p132
sS'session'
p133
g59
(S's6\x01\x00\x00<div><table><tr><td style="font-weight:bold;vertical-align:top;">last_orderby</td><td style="vertical-align:top;">:</td><td><div>None</div></td></tr><tr><td style="font-weight:bold;vertical-align:top;">last_query</td><td style="vertical-align:top;">:</td><td><div>db.orday.id&gt;0</div></td></tr></table></div>'
tRp134
sS'etype'
p135
S"<type 'exceptions.KeyError'>"
p136
sS'date'
p137
S'Mon Aug 20 15:03:15 2018'
p138
sS'response'
p139
g59
(S's[\x1d\x00\x00<div><table><tr><td style="font-weight:bold;vertical-align:top;">body</td><td style="vertical-align:top;">:</td><td><div>&lt;cStringIO.StringO object at 0x7fe20a10cd50&gt;</div></td></tr><tr><td style="font-weight:bold;vertical-align:top;">cookies</td><td style="vertical-align:top;">:</td><td><div><table><tr><td style="font-weight:bold;vertical-align:top;">session_id_asha3a</td><td style="vertical-align:top;">:</td><td><div>45.246.114.176-96e3e3cf-4920-4027-b744-25b974aaa135<table><tr><td style="font-weight:bold;vertical-align:top;">comment</td><td style="vertical-align:top;">:</td><td><div></div></td></tr><tr><td style="font-weight:bold;vertical-align:top;">domain</td><td style="vertical-align:top;">:</td><td><div></div></td></tr><tr><td style="font-weight:bold;vertical-align:top;">expires</td><td style="vertical-align:top;">:</td><td><div></div></td></tr><tr><td style="font-weight:bold;vertical-align:top;">httponly</td><td style="vertical-align:top;">:</td><td><div></div></td></tr><tr><td style="font-weight:bold;vertical-align:top;">max-age</td><td style="vertical-align:top;">:</td><td><div></div></td></tr><tr><td style="font-weight:bold;vertical-align:top;">path</td><td style="vertical-align:top;">:</td><td><div>/</div></td></tr><tr><td style="font-weight:bold;vertical-align:top;">secure</td><td style="vertical-align:top;">:</td><td><div></div></td></tr><tr><td style="font-weight:bold;vertical-align:top;">version</td><td style="vertical-align:top;">:</td><td><div></div></td></tr></table></div></td></tr></table></div></td></tr><tr><td style="font-weight:bold;vertical-align:top;">delimiters</td><td style="vertical-align:top;">:</td><td><div><table><tr><td><div>{{</div></td></tr><tr><td><div>}}</div></td></tr></table></div></td></tr><tr><td style="font-weight:bold;vertical-align:top;">files</td><td style="vertical-align:top;">:</td><td><div><table><tr><td><div>/asha3a/static/js/jquery.js</div></td></tr><tr><td><div>/asha3a/static/css/calendar.css</div></td></tr><tr><td><div>/asha3a/static/js/calendar.js</div></td></tr><tr><td><div>/asha3a/static/js/web2py.js</div></td></tr></table></div></td></tr><tr><td style="font-weight:bold;vertical-align:top;">flash</td><td style="vertical-align:top;">:</td><td><div>\xd9\x85\xd9\x86\xd9\x81\xd8\xb6\xd9\x84\xd9\x83 \xd8\xa7\xd8\xae\xd8\xaa\xd8\xa7\xd8\xb1 \xd9\x85\xd8\xaf\xd9\x87 \xd9\x85\xd8\xad\xd8\xaf\xd8\xaf\xd8\xa9</div></td></tr><tr><td style="font-weight:bold;vertical-align:top;">form_label_separator</td><td style="vertical-align:top;">:</td><td><div></div></td></tr><tr><td style="font-weight:bold;vertical-align:top;">formstyle</td><td style="vertical-align:top;">:</td><td><div>bootstrap3_inline</div></td></tr><tr><td style="font-weight:bold;vertical-align:top;">generic_patterns</td><td style="vertical-align:top;">:</td><td><div><table></table></div></td></tr><tr><td style="font-weight:bold;vertical-align:top;">google_analytics_id</td><td style="vertical-align:top;">:</td><td><div>None</div></td></tr><tr><td style="font-weight:bold;vertical-align:top;">headers</td><td style="vertical-align:top;">:</td><td><div><table><tr><td style="font-weight:bold;vertical-align:top;">X-Powered-By</td><td style="vertical-align:top;">:</td><td><div>web2py</div></td></tr></table></div></td></tr><tr><td style="font-weight:bold;vertical-align:top;">logo</td><td style="vertical-align:top;">:</td><td><div><a class="" href="http://www.facebook.com/mbastaw" id="itm-logo"><img src="/asha3a/static/images/powered1.png" /></a></div></td></tr><tr><td style="font-weight:bold;vertical-align:top;">menu</td><td style="vertical-align:top;">:</td><td><div><table></table></div></td></tr><tr><td style="font-weight:bold;vertical-align:top;">meta</td><td style="vertical-align:top;">:</td><td><div><table><tr><td style="font-weight:bold;vertical-align:top;">author</td><td style="vertical-align:top;">:</td><td><div>Your Name &lt;you@example.com&gt;</div></td></tr><tr><td style="font-weight:bold;vertical-align:top;">description</td><td style="vertical-align:top;">:</td><td><div>a cool new app</div></td></tr><tr><td style="font-weight:bold;vertical-align:top;">generator</td><td style="vertical-align:top;">:</td><td><div>Web2py Web Framework</div></td></tr><tr><td style="font-weight:bold;vertical-align:top;">keywords</td><td style="vertical-align:top;">:</td><td><div>web2py, python, framework</div></td></tr></table></div></td></tr><tr><td style="font-weight:bold;vertical-align:top;">models_to_run</td><td style="vertical-align:top;">:</td><td><div><table><tr><td><div>^\\w+\\.py$</div></td></tr><tr><td><div>^reports/\\w+\\.py$</div></td></tr><tr><td><div>^reports/orders/\\w+\\.py$</div></td></tr></table></div></td></tr><tr><td style="font-weight:bold;vertical-align:top;">postprocessing</td><td style="vertical-align:top;">:</td><td><div><table></table></div></td></tr><tr><td style="font-weight:bold;vertical-align:top;">session_client</td><td style="vertical-align:top;">:</td><td><div>45.246.114.176</div></td></tr><tr><td style="font-weight:bold;vertical-align:top;">session_cookie_compression_level</td><td style="vertical-align:top;">:</td><td><div>None</div></td></tr><tr><td style="font-weight:bold;vertical-align:top;">session_cookie_expires</td><td style="vertical-align:top;">:</td><td><div>None</div></td></tr><tr><td style="font-weight:bold;vertical-align:top;">session_data_name</td><td style="vertical-align:top;">:</td><td><div>session_data_asha3a</div></td></tr><tr><td style="font-weight:bold;vertical-align:top;">session_file</td><td style="vertical-align:top;">:</td><td><div>&lt;open file &#x27;/home/itmbastawi/web2py/applications/asha3a/sessions/1b1/19f/45.246.114.176-96e3e3cf-4920-4027-b744-25b974aaa135&#x27;, mode &#x27;rb+&#x27; at 0x7fe20a5a41e0&gt;</div></td></tr><tr><td style="font-weight:bold;vertical-align:top;">session_filename</td><td style="vertical-align:top;">:</td><td><div>/home/itmbastawi/web2py/applications/asha3a/sessions/45.246.114.176-96e3e3cf-4920-4027-b744-25b974aaa135</div></td></tr><tr><td style="font-weight:bold;vertical-align:top;">session_hash</td><td style="vertical-align:top;">:</td><td><div>b635e018c4ab20e9d9bf657d9293517f</div></td></tr><tr><td style="font-weight:bold;vertical-align:top;">session_id</td><td style="vertical-align:top;">:</td><td><div>45.246.114.176-96e3e3cf-4920-4027-b744-25b974aaa135</div></td></tr><tr><td style="font-weight:bold;vertical-align:top;">session_id_name</td><td style="vertical-align:top;">:</td><td><div>session_id_asha3a</div></td></tr><tr><td style="font-weight:bold;vertical-align:top;">session_locked</td><td style="vertical-align:top;">:</td><td><div>True</div></td></tr><tr><td style="font-weight:bold;vertical-align:top;">session_masterapp</td><td style="vertical-align:top;">:</td><td><div>asha3a</div></td></tr><tr><td style="font-weight:bold;vertical-align:top;">session_new</td><td style="vertical-align:top;">:</td><td><div>False</div></td></tr><tr><td style="font-weight:bold;vertical-align:top;">session_storage_type</td><td style="vertical-align:top;">:</td><td><div>file</div></td></tr><tr><td style="font-weight:bold;vertical-align:top;">status</td><td style="vertical-align:top;">:</td><td><div>200</div></td></tr><tr><td style="font-weight:bold;vertical-align:top;">subtitle</td><td style="vertical-align:top;">:</td><td><div></div></td></tr><tr><td style="font-weight:bold;vertical-align:top;">title</td><td style="vertical-align:top;">:</td><td><div>Asha3A</div></td></tr><tr><td style="font-weight:bold;vertical-align:top;">view</td><td style="vertical-align:top;">:</td><td><div>reports/orders.html</div></td></tr></table></div>'
tRp140
sS'locals'
p141
(dp142
S'e'
S'None'
p143
sS'k'
S"'COUNT(orday.totalcost)'"
p144
sS'm'
S'None'
p145
sS'self'
p146
S'<Row {\'COUNT("orday"."totalcost")\': 30L}>'
p147
sS'key'
p148
S"'COUNT(orday.totalcost)'"
p149
sS'_extra'
p150
S'None'
p151
sssS'traceback'
p152
S'Traceback (most recent call last):\n  File "/home/itmbastawi/web2py/gluon/restricted.py", line 219, in restricted\n    exec(ccode, environment)\n  File "/home/itmbastawi/web2py/applications/asha3a/views/reports/orders.html", line 85, in <module>\n  File "/home/itmbastawi/web2py/gluon/packages/dal/pydal/objects.py", line 96, in __getitem__\n    raise KeyError(key)\nKeyError: \'COUNT(orday.totalcost)\'\n'
p153
s.